target datalayout = "e-m:e-p270:32:32-p271:32:32-p272:64:64-i64:64-i128:128-f80:128-n8:16:32:64-S128"
target triple = "x86_64-unknown-linux-gnu"

%"class.ue2::ComponentEUS" = type <{ %"class.ue2::Component", i32, i8, [3 x i8], i32, [4 x i8] }>
%"class.ue2::Component" = type { ptr, i32, i32 }

@_ZTVN3ue29ComponentE = external unnamed_addr constant { [17 x ptr] }, align 8

; Function Attrs: mustprogress nounwind uwtable
define linkonce_odr hidden void @_ZN3ue29ComponentC2ERKS0_(ptr noundef nonnull align 8 dereferenceable(16) %this, ptr noundef nonnull align 8 dereferenceable(16) %other) unnamed_addr #2 comdat align 2 {
entry:
  %this.addr = alloca ptr, align 8
  %other.addr = alloca ptr, align 8
  store ptr %this, ptr %this.addr, align 8
  store ptr %other, ptr %other.addr, align 8
  %this1 = load ptr, ptr %this.addr, align 8
  store ptr getelementptr inbounds ({ [17 x ptr] }, ptr @_ZTVN3ue29ComponentE, i32 0, i32 0, i32 2), ptr %this1, align 8
  %pos_begin = getelementptr inbounds %"class.ue2::Component", ptr %this1, i32 0, i32 1
  %0 = load ptr, ptr %other.addr, align 8
  %pos_begin2 = getelementptr inbounds %"class.ue2::Component", ptr %0, i32 0, i32 1
  %1 = load i32, ptr %pos_begin2, align 8
  store i32 %1, ptr %pos_begin, align 8
  %pos_end = getelementptr inbounds %"class.ue2::Component", ptr %this1, i32 0, i32 2
  %2 = load ptr, ptr %other.addr, align 8
  %pos_end3 = getelementptr inbounds %"class.ue2::Component", ptr %2, i32 0, i32 2
  %3 = load i32, ptr %pos_end3, align 4
  store i32 %3, ptr %pos_end, align 4
  ret void
}

; Function Attrs: mustprogress uwtable
define linkonce_odr hidden void @_ZN3ue212ComponentEUSC2ERKS0_(ptr noundef nonnull align 8 dereferenceable(28) %this, ptr noundef nonnull align 8 dereferenceable(28) %other) unnamed_addr #0 comdat align 2 {
entry:
  %this.addr = alloca ptr, align 8
  %other.addr = alloca ptr, align 8
  store ptr %this, ptr %this.addr, align 8
  store ptr %other, ptr %other.addr, align 8
  %this1 = load ptr, ptr %this.addr, align 8
  %0 = load ptr, ptr %other.addr, align 8
  call void @_ZN3ue29ComponentC2ERKS0_(ptr noundef nonnull align 8 dereferenceable(16) %this1, ptr noundef nonnull align 8 dereferenceable(16) %0)
  store ptr getelementptr inbounds ({ [17 x ptr] }, ptr @_ZTVN3ue212ComponentEUSE, i32 0, i32 0, i32 2), ptr %this1, align 8
  %loc = getelementptr inbounds %"class.ue2::ComponentEUS", ptr %this1, i32 0, i32 1
  %1 = load ptr, ptr %other.addr, align 8
  %loc2 = getelementptr inbounds %"class.ue2::ComponentEUS", ptr %1, i32 0, i32 1
  %2 = load i32, ptr %loc2, align 8
  store i32 %2, ptr %loc, align 8
  %utf8 = getelementptr inbounds %"class.ue2::ComponentEUS", ptr %this1, i32 0, i32 2
  %3 = load ptr, ptr %other.addr, align 8
  %utf83 = getelementptr inbounds %"class.ue2::ComponentEUS", ptr %3, i32 0, i32 2
  %4 = load i8, ptr %utf83, align 4
  %tobool = trunc i8 %4 to i1
  %frombool = zext i1 %tobool to i8
  store i8 %frombool, ptr %utf8, align 4
  %position = getelementptr inbounds %"class.ue2::ComponentEUS", ptr %this1, i32 0, i32 4
  %5 = load ptr, ptr %other.addr, align 8
  %position4 = getelementptr inbounds %"class.ue2::ComponentEUS", ptr %5, i32 0, i32 4
  %6 = load i32, ptr %position4, align 8
  store i32 %6, ptr %position, align 8
  ret void
}

; Function Attrs: mustprogress uwtable
define hidden noundef ptr @_ZNK3ue212ComponentEUS5cloneEv(ptr noundef nonnull align 8 dereferenceable(28) %this) unnamed_addr #0 align 2 personality ptr @__gxx_personality_v0 {
entry:
  %this.addr = alloca ptr, align 8
  %exn.slot = alloca ptr, align 8
  %ehselector.slot = alloca i32, align 4
  store ptr %this, ptr %this.addr, align 8
  %this1 = load ptr, ptr %this.addr, align 8
  %call = call noalias noundef nonnull ptr @_Znwm(i64 noundef 32) #13
  invoke void @_ZN3ue212ComponentEUSC2ERKS0_(ptr noundef nonnull align 8 dereferenceable(28) %call, ptr noundef nonnull align 8 dereferenceable(28) %this1)
          to label %invoke.cont unwind label %lpad

invoke.cont:                                      ; preds = %entry
  ret ptr %call

lpad:                                             ; preds = %entry
  %0 = landingpad { ptr, i32 }
          cleanup
  %1 = extractvalue { ptr, i32 } %0, 0
  store ptr %1, ptr %exn.slot, align 8
  %2 = extractvalue { ptr, i32 } %0, 1
  store i32 %2, ptr %ehselector.slot, align 4
  call void @_ZdlPv(ptr noundef %call) #12
  br label %eh.resume

eh.resume:                                        ; preds = %lpad
  %exn = load ptr, ptr %exn.slot, align 8
  %sel = load i32, ptr %ehselector.slot, align 4
  %lpad.val = insertvalue { ptr, i32 } poison, ptr %exn, 0
  %lpad.val2 = insertvalue { ptr, i32 } %lpad.val, i32 %sel, 1
  resume { ptr, i32 } %lpad.val2
}